; Function Attrs: mustprogress nounwind uwtable
define hidden void @_ZN15OSThreadSampler14protected_taskERK26SuspendedThreadTaskContext(ptr noundef nonnull align 8 dereferenceable(96) %0, ptr nocapture noundef nonnull readonly align 8 dereferenceable(16) %1) local_unnamed_addr #0 align 2 {
  %3 = alloca %class.JfrGetCallTrace, align 8
  %4 = alloca %class.frame, align 8
  %5 = load ptr, ptr %1, align 8
  %6 = getelementptr inbounds i8, ptr %5, i64 1092
  %7 = load volatile i32, ptr %6, align 4
  switch i32 %7, label %8 [
    i32 2, label %_ZL20thread_state_in_javaP10JavaThread.exit
    i32 0, label %_ZL20thread_state_in_javaP10JavaThread.exit
    i32 3, label %_ZL20thread_state_in_javaP10JavaThread.exit
    i32 7, label %_ZL20thread_state_in_javaP10JavaThread.exit
    i32 11, label %_ZL20thread_state_in_javaP10JavaThread.exit
    i32 5, label %_ZL20thread_state_in_javaP10JavaThread.exit
    i32 10, label %_ZL20thread_state_in_javaP10JavaThread.exit
    i32 6, label %_ZL20thread_state_in_javaP10JavaThread.exit
    i32 4, label %_ZL20thread_state_in_javaP10JavaThread.exit
    i32 9, label %_ZL20thread_state_in_javaP10JavaThread.exit
    i32 8, label %10
  ]

8:                                                ; preds = %2
  %9 = load ptr, ptr @g_assert_poison, align 8
  store i8 88, ptr %9, align 1
  tail call void @_Z28report_should_not_reach_herePKci(ptr noundef nonnull @.str, i32 noundef 74) #19
  unreachable

10:                                               ; preds = %2
  store ptr %5, ptr %3, align 8
  %11 = getelementptr inbounds i8, ptr %3, i64 8
  store i8 1, ptr %11, align 8
  %12 = getelementptr inbounds i8, ptr %4, i64 40
  %13 = getelementptr inbounds i8, ptr %4, i64 32
  call void @llvm.memset.p0.i64(ptr noundef nonnull align 8 dereferenceable(24) %4, i8 0, i64 24, i1 false)
  call void @llvm.memset.p0.i64(ptr noundef nonnull align 8 dereferenceable(16) %12, i8 0, i64 16, i1 false)
  store i32 2, ptr %13, align 8
  %14 = getelementptr inbounds i8, ptr %4, i64 24
  store ptr null, ptr %14, align 8
  %15 = getelementptr inbounds i8, ptr %4, i64 36
  store i8 0, ptr %15, align 4
  %16 = getelementptr inbounds i8, ptr %1, i64 8
  %17 = load ptr, ptr %16, align 8
  %18 = call noundef zeroext i1 @_ZN15JfrGetCallTrace12get_topframeEPvR5frame(ptr noundef nonnull align 8 dereferenceable(9) %3, ptr noundef %17, ptr noundef nonnull align 8 dereferenceable(56) %4) #18
  br i1 %18, label %19, label %_ZL20thread_state_in_javaP10JavaThread.exit

19:                                               ; preds = %10
  %20 = getelementptr inbounds i8, ptr %0, i64 32
  %21 = call noundef zeroext i1 @_ZN13JfrStackTrace12record_asyncEP10JavaThreadRK5frame(ptr noundef nonnull align 8 dereferenceable(44) %20, ptr noundef nonnull %5, ptr noundef nonnull align 8 dereferenceable(56) %4) #18
  br i1 %21, label %22, label %_ZL20thread_state_in_javaP10JavaThread.exit

22:                                               ; preds = %19
  %23 = getelementptr inbounds i8, ptr %0, i64 17
  store i8 1, ptr %23, align 1
  %24 = getelementptr inbounds i8, ptr %0, i64 80
  %25 = load ptr, ptr %24, align 8
  %26 = load ptr, ptr %25, align 8
  %27 = getelementptr inbounds i8, ptr %25, i64 24
  %28 = load i32, ptr %27, align 8
  %29 = add i32 %28, 1
  store i32 %29, ptr %27, align 8
  %30 = zext i32 %28 to i64
  %31 = getelementptr inbounds %class.EventExecutionSample, ptr %26, i64 %30
  %32 = getelementptr inbounds i8, ptr %0, i64 88
  %33 = load i64, ptr %32, align 8
  store i64 %33, ptr %31, align 8
  %34 = getelementptr inbounds i8, ptr %31, i64 8
  store i64 %33, ptr %34, align 8
  %35 = call noundef i64 @_ZN14JfrThreadLocal9thread_idEPK6Thread(ptr noundef nonnull %5) #18
  %36 = getelementptr inbounds i8, ptr %31, i64 24
  store i64 %35, ptr %36, align 8
  %37 = getelementptr inbounds i8, ptr %31, i64 40
  store i64 5, ptr %37, align 8
  br label %_ZL20thread_state_in_javaP10JavaThread.exit

_ZL20thread_state_in_javaP10JavaThread.exit:      ; preds = %2, %2, %2, %2, %2, %2, %2, %2, %2, %2, %19, %22, %10
  ret void
}